target datalayout = "e-m:e-p270:32:32-p271:32:32-p272:64:64-i64:64-i128:128-f80:128-n8:16:32:64-S128"
target triple = "x86_64-pc-linux-gnu"

; Function Attrs: mustprogress uwtable
define internal noundef zeroext i1 @_ZL22grpc_is_ipv4_availablev() #4 {
  %1 = alloca i32, align 4
  call void @llvm.lifetime.start.p0(i64 4, ptr %1) #3
  %2 = call i32 @socket(i32 noundef 2, i32 noundef 2, i32 noundef 0) #3
  store i32 %2, ptr %1, align 4, !tbaa !8
  %3 = load i32, ptr %1, align 4, !tbaa !8
  %4 = icmp sge i32 %3, 0
  br i1 %4, label %5, label %8

5:                                                ; preds = %0
  %6 = load i32, ptr %1, align 4, !tbaa !8
  %7 = call i32 @close(i32 noundef %6)
  br label %8

8:                                                ; preds = %5, %0
  %9 = load i32, ptr %1, align 4, !tbaa !8
  %10 = icmp sge i32 %9, 0
  call void @llvm.lifetime.end.p0(i64 4, ptr %1) #3
  ret i1 %10
}