; Function Attrs: mustprogress uwtable
define internal fastcc noundef zeroext i1 @_ZL22grpc_is_ipv4_availablev() unnamed_addr #3 {
  %1 = tail call i32 @socket(i32 noundef 2, i32 noundef 2, i32 noundef 0) #25
  %2 = icmp sgt i32 %1, -1
  br i1 %2, label %3, label %5

3:                                                ; preds = %0
  %4 = tail call i32 @close(i32 noundef %1)
  br label %5

5:                                                ; preds = %3, %0
  ret i1 %2
}